target datalayout = "e-m:e-p270:32:32-p271:32:32-p272:64:64-i64:64-i128:128-f80:128-n8:16:32:64-S128"
target triple = "x86_64-pc-linux-gnu"

%"struct.std::atomic.113" = type { %"struct.std::__atomic_base.114" }
%"struct.std::__atomic_base.114" = type { i64 }
%"class.grpc_core::PolymorphicRefCount" = type { ptr }
%"class.grpc_core::RefCount" = type { %"struct.std::atomic" }
%"struct.std::atomic" = type { %"struct.std::__atomic_base" }
%"struct.std::__atomic_base" = type { i64 }
%"class.grpc_core::InternallyRefCounted" = type { %"class.grpc_core::Orphanable", %"class.grpc_core::RefCount" }
%"class.grpc_core::Orphanable" = type { ptr }
%"class.grpc_core::RefCountedPtr.177" = type { ptr }
%"class.grpc_core::DualRefCounted" = type { %"class.grpc_core::PolymorphicRefCount", %"struct.std::atomic.113" }
%"class.grpc_core::(anonymous namespace)::PickFirst::SubchannelList::SubchannelData::SubchannelState" = type { %"class.grpc_core::InternallyRefCounted.391", ptr, %"class.grpc_core::RefCountedPtr.392", %"class.grpc_core::RefCountedPtr.177", ptr }
%"class.grpc_core::InternallyRefCounted.391" = type { %"class.grpc_core::Orphanable", %"class.grpc_core::RefCount" }
%"class.grpc_core::RefCountedPtr.392" = type { ptr }

; Function Attrs: alwaysinline mustprogress nounwind uwtable
define linkonce_odr noundef i64 @_ZNSt13__atomic_baseIlE9fetch_subElSt12memory_order(ptr noundef nonnull align 8 dereferenceable(8) %0, i64 noundef %1, i32 noundef %2) #11 comdat align 2 {
  %4 = alloca ptr, align 8
  %5 = alloca i64, align 8
  %6 = alloca i32, align 4
  %7 = alloca i64, align 8
  %8 = alloca i64, align 8
  store ptr %0, ptr %4, align 8, !tbaa !175
  store i64 %1, ptr %5, align 8, !tbaa !8
  store i32 %2, ptr %6, align 4, !tbaa !184
  %9 = load ptr, ptr %4, align 8
  %10 = getelementptr inbounds nuw %"struct.std::__atomic_base", ptr %9, i32 0, i32 0
  %11 = load i32, ptr %6, align 4, !tbaa !184
  %12 = load i64, ptr %5, align 8, !tbaa !8
  store i64 %12, ptr %7, align 8, !tbaa !8
  switch i32 %11, label %13 [
    i32 1, label %16
    i32 2, label %16
    i32 3, label %19
    i32 4, label %22
    i32 5, label %25
  ]

13:                                               ; preds = %3
  %14 = load i64, ptr %7, align 8
  %15 = atomicrmw sub ptr %10, i64 %14 monotonic, align 8
  store i64 %15, ptr %8, align 8
  br label %28

16:                                               ; preds = %3, %3
  %17 = load i64, ptr %7, align 8
  %18 = atomicrmw sub ptr %10, i64 %17 acquire, align 8
  store i64 %18, ptr %8, align 8
  br label %28

19:                                               ; preds = %3
  %20 = load i64, ptr %7, align 8
  %21 = atomicrmw sub ptr %10, i64 %20 release, align 8
  store i64 %21, ptr %8, align 8
  br label %28

22:                                               ; preds = %3
  %23 = load i64, ptr %7, align 8
  %24 = atomicrmw sub ptr %10, i64 %23 acq_rel, align 8
  store i64 %24, ptr %8, align 8
  br label %28

25:                                               ; preds = %3
  %26 = load i64, ptr %7, align 8
  %27 = atomicrmw sub ptr %10, i64 %26 seq_cst, align 8
  store i64 %27, ptr %8, align 8
  br label %28

28:                                               ; preds = %25, %22, %19, %16, %13
  %29 = load i64, ptr %8, align 8, !tbaa !8
  ret i64 %29
}

; Function Attrs: mustprogress nounwind uwtable
define linkonce_odr void @_ZNK9grpc_core11UnrefDeleteclINS_19SubchannelInterfaceEEEvPT_(ptr noundef nonnull align 1 dereferenceable(1) %0, ptr noundef %1) #6 comdat align 2 {
  %3 = alloca ptr, align 8
  %4 = alloca ptr, align 8
  store ptr %0, ptr %3, align 8, !tbaa !182
  store ptr %1, ptr %4, align 8, !tbaa !453
  %5 = load ptr, ptr %4, align 8, !tbaa !453
  %6 = icmp eq ptr %5, null
  br i1 %6, label %11, label %7

7:                                                ; preds = %2
  %8 = load ptr, ptr %5, align 8, !tbaa !64
  %9 = getelementptr inbounds ptr, ptr %8, i64 1
  %10 = load ptr, ptr %9, align 8
  call void %10(ptr noundef nonnull align 8 dereferenceable(16) %5) #3
  br label %11

11:                                               ; preds = %7, %2
  ret void
}

; Function Attrs: alwaysinline mustprogress nounwind uwtable
define linkonce_odr noundef i64 @_ZNSt13__atomic_baseImE9fetch_subEmSt12memory_order(ptr noundef nonnull align 8 dereferenceable(8) %0, i64 noundef %1, i32 noundef %2) #11 comdat align 2 {
  %4 = alloca ptr, align 8
  %5 = alloca i64, align 8
  %6 = alloca i32, align 4
  %7 = alloca i64, align 8
  %8 = alloca i64, align 8
  store ptr %0, ptr %4, align 8, !tbaa !202
  store i64 %1, ptr %5, align 8, !tbaa !8
  store i32 %2, ptr %6, align 4, !tbaa !184
  %9 = load ptr, ptr %4, align 8
  %10 = getelementptr inbounds nuw %"struct.std::__atomic_base.114", ptr %9, i32 0, i32 0
  %11 = load i32, ptr %6, align 4, !tbaa !184
  %12 = load i64, ptr %5, align 8, !tbaa !8
  store i64 %12, ptr %7, align 8, !tbaa !8
  switch i32 %11, label %13 [
    i32 1, label %16
    i32 2, label %16
    i32 3, label %19
    i32 4, label %22
    i32 5, label %25
  ]

13:                                               ; preds = %3
  %14 = load i64, ptr %7, align 8
  %15 = atomicrmw sub ptr %10, i64 %14 monotonic, align 8
  store i64 %15, ptr %8, align 8
  br label %28

16:                                               ; preds = %3, %3
  %17 = load i64, ptr %7, align 8
  %18 = atomicrmw sub ptr %10, i64 %17 acquire, align 8
  store i64 %18, ptr %8, align 8
  br label %28

19:                                               ; preds = %3
  %20 = load i64, ptr %7, align 8
  %21 = atomicrmw sub ptr %10, i64 %20 release, align 8
  store i64 %21, ptr %8, align 8
  br label %28

22:                                               ; preds = %3
  %23 = load i64, ptr %7, align 8
  %24 = atomicrmw sub ptr %10, i64 %23 acq_rel, align 8
  store i64 %24, ptr %8, align 8
  br label %28

25:                                               ; preds = %3
  %26 = load i64, ptr %7, align 8
  %27 = atomicrmw sub ptr %10, i64 %26 seq_cst, align 8
  store i64 %27, ptr %8, align 8
  br label %28

28:                                               ; preds = %25, %22, %19, %16, %13
  %29 = load i64, ptr %8, align 8, !tbaa !8
  ret i64 %29
}

; Function Attrs: mustprogress nounwind uwtable
define linkonce_odr void @_ZNK9grpc_core11UnrefDeleteclINS_19LoadBalancingPolicyEEEvPT_(ptr noundef nonnull align 1 dereferenceable(1) %0, ptr noundef %1) #6 comdat align 2 {
  %3 = alloca ptr, align 8
  %4 = alloca ptr, align 8
  store ptr %0, ptr %3, align 8, !tbaa !182
  store ptr %1, ptr %4, align 8, !tbaa !281
  %5 = load ptr, ptr %4, align 8, !tbaa !281
  %6 = icmp eq ptr %5, null
  br i1 %6, label %11, label %7

7:                                                ; preds = %2
  %8 = load ptr, ptr %5, align 8, !tbaa !64
  %9 = getelementptr inbounds ptr, ptr %8, i64 2
  %10 = load ptr, ptr %9, align 8
  call void %10(ptr noundef nonnull align 8 dereferenceable(56) %5) #3
  br label %11

11:                                               ; preds = %7, %2
  ret void
}

; Function Attrs: mustprogress nounwind uwtable
define linkonce_odr noundef zeroext i1 @_ZN9grpc_core8RefCount5UnrefEv(ptr noundef nonnull align 8 dereferenceable(8) %0) #6 comdat align 2 {
  %2 = alloca ptr, align 8
  %3 = alloca i64, align 8
  store ptr %0, ptr %2, align 8, !tbaa !171
  %4 = load ptr, ptr %2, align 8
  call void @llvm.lifetime.start.p0(i64 8, ptr %3) #3
  %5 = getelementptr inbounds nuw %"class.grpc_core::RefCount", ptr %4, i32 0, i32 0
  %6 = call noundef i64 @_ZNSt13__atomic_baseIlE9fetch_subElSt12memory_order(ptr noundef nonnull align 8 dereferenceable(8) %5, i64 noundef 1, i32 noundef 4) #3
  store i64 %6, ptr %3, align 8, !tbaa !8
  %7 = load i64, ptr %3, align 8, !tbaa !8
  %8 = icmp eq i64 %7, 1
  call void @llvm.lifetime.end.p0(i64 8, ptr %3) #3
  ret i1 %8
}

; Function Attrs: mustprogress uwtable
define linkonce_odr void @_ZN9grpc_core14DualRefCountedINS_19SubchannelInterfaceENS_19PolymorphicRefCountENS_11UnrefDeleteEE9WeakUnrefEv(ptr noundef nonnull align 8 dereferenceable(16) %0) #5 comdat align 2 {
  %2 = alloca ptr, align 8
  %3 = alloca i64, align 8
  store ptr %0, ptr %2, align 8, !tbaa !468
  %4 = load ptr, ptr %2, align 8
  call void @llvm.lifetime.start.p0(i64 8, ptr %3) #3
  %5 = getelementptr inbounds nuw %"class.grpc_core::DualRefCounted", ptr %4, i32 0, i32 1
  %6 = call noundef i64 @_ZN9grpc_core14DualRefCountedINS_19SubchannelInterfaceENS_19PolymorphicRefCountENS_11UnrefDeleteEE11MakeRefPairEjj(i32 noundef 0, i32 noundef 1)
  %7 = call noundef i64 @_ZNSt13__atomic_baseImE9fetch_subEmSt12memory_order(ptr noundef nonnull align 8 dereferenceable(8) %5, i64 noundef %6, i32 noundef 4) #3
  store i64 %7, ptr %3, align 8, !tbaa !8
  %8 = load i64, ptr %3, align 8, !tbaa !8
  %9 = call noundef i64 @_ZN9grpc_core14DualRefCountedINS_19SubchannelInterfaceENS_19PolymorphicRefCountENS_11UnrefDeleteEE11MakeRefPairEjj(i32 noundef 0, i32 noundef 1)
  %10 = icmp eq i64 %8, %9
  %11 = zext i1 %10 to i64
  %12 = call i64 @llvm.expect.i64(i64 %11, i64 0)
  %13 = icmp ne i64 %12, 0
  br i1 %13, label %14, label %15

14:                                               ; preds = %1
  call void @_ZNK9grpc_core11UnrefDeleteclINS_19SubchannelInterfaceEEEvPT_(ptr noundef nonnull align 1 dereferenceable(1) %4, ptr noundef %4)
  br label %15

15:                                               ; preds = %14, %1
  call void @llvm.lifetime.end.p0(i64 8, ptr %3) #3
  ret void
}

; Function Attrs: mustprogress nounwind uwtable
define linkonce_odr noundef i32 @_ZN9grpc_core14DualRefCountedINS_19SubchannelInterfaceENS_19PolymorphicRefCountENS_11UnrefDeleteEE13GetStrongRefsEm(i64 noundef %0) #6 comdat align 2 {
  %2 = alloca i64, align 8
  store i64 %0, ptr %2, align 8, !tbaa !8
  %3 = load i64, ptr %2, align 8, !tbaa !8
  %4 = lshr i64 %3, 32
  %5 = trunc i64 %4 to i32
  ret i32 %5
}

; Function Attrs: alwaysinline mustprogress nounwind uwtable
define linkonce_odr noundef i64 @_ZNSt13__atomic_baseImE9fetch_addEmSt12memory_order(ptr noundef nonnull align 8 dereferenceable(8) %0, i64 noundef %1, i32 noundef %2) #11 comdat align 2 {
  %4 = alloca ptr, align 8
  %5 = alloca i64, align 8
  %6 = alloca i32, align 4
  %7 = alloca i64, align 8
  %8 = alloca i64, align 8
  store ptr %0, ptr %4, align 8, !tbaa !202
  store i64 %1, ptr %5, align 8, !tbaa !8
  store i32 %2, ptr %6, align 4, !tbaa !184
  %9 = load ptr, ptr %4, align 8
  %10 = getelementptr inbounds nuw %"struct.std::__atomic_base.114", ptr %9, i32 0, i32 0
  %11 = load i32, ptr %6, align 4, !tbaa !184
  %12 = load i64, ptr %5, align 8, !tbaa !8
  store i64 %12, ptr %7, align 8, !tbaa !8
  switch i32 %11, label %13 [
    i32 1, label %16
    i32 2, label %16
    i32 3, label %19
    i32 4, label %22
    i32 5, label %25
  ]

13:                                               ; preds = %3
  %14 = load i64, ptr %7, align 8
  %15 = atomicrmw add ptr %10, i64 %14 monotonic, align 8
  store i64 %15, ptr %8, align 8
  br label %28

16:                                               ; preds = %3, %3
  %17 = load i64, ptr %7, align 8
  %18 = atomicrmw add ptr %10, i64 %17 acquire, align 8
  store i64 %18, ptr %8, align 8
  br label %28

19:                                               ; preds = %3
  %20 = load i64, ptr %7, align 8
  %21 = atomicrmw add ptr %10, i64 %20 release, align 8
  store i64 %21, ptr %8, align 8
  br label %28

22:                                               ; preds = %3
  %23 = load i64, ptr %7, align 8
  %24 = atomicrmw add ptr %10, i64 %23 acq_rel, align 8
  store i64 %24, ptr %8, align 8
  br label %28

25:                                               ; preds = %3
  %26 = load i64, ptr %7, align 8
  %27 = atomicrmw add ptr %10, i64 %26 seq_cst, align 8
  store i64 %27, ptr %8, align 8
  br label %28

28:                                               ; preds = %25, %22, %19, %16, %13
  %29 = load i64, ptr %8, align 8, !tbaa !8
  ret i64 %29
}

; Function Attrs: mustprogress nounwind uwtable
define linkonce_odr noundef i64 @_ZN9grpc_core14DualRefCountedINS_19SubchannelInterfaceENS_19PolymorphicRefCountENS_11UnrefDeleteEE11MakeRefPairEjj(i32 noundef %0, i32 noundef %1) #6 comdat align 2 {
  %3 = alloca i32, align 4
  %4 = alloca i32, align 4
  store i32 %0, ptr %3, align 4, !tbaa !250
  store i32 %1, ptr %4, align 4, !tbaa !250
  %5 = load i32, ptr %3, align 4, !tbaa !250
  %6 = zext i32 %5 to i64
  %7 = shl i64 %6, 32
  %8 = load i32, ptr %4, align 4, !tbaa !250
  %9 = zext i32 %8 to i64
  %10 = add i64 %7, %9
  ret i64 %10
}

; Function Attrs: mustprogress uwtable
define linkonce_odr void @_ZN9grpc_core20InternallyRefCountedINS_19LoadBalancingPolicyENS_11UnrefDeleteEE5UnrefEv(ptr noundef nonnull align 8 dereferenceable(16) %0) #5 comdat align 2 {
  %2 = alloca ptr, align 8
  store ptr %0, ptr %2, align 8, !tbaa !483
  %3 = load ptr, ptr %2, align 8
  %4 = getelementptr inbounds nuw %"class.grpc_core::InternallyRefCounted", ptr %3, i32 0, i32 1
  %5 = call noundef zeroext i1 @_ZN9grpc_core8RefCount5UnrefEv(ptr noundef nonnull align 8 dereferenceable(8) %4)
  %6 = zext i1 %5 to i64
  %7 = call i64 @llvm.expect.i64(i64 %6, i64 0)
  %8 = icmp ne i64 %7, 0
  br i1 %8, label %9, label %10

9:                                                ; preds = %1
  call void @_ZNK9grpc_core11UnrefDeleteclINS_19LoadBalancingPolicyEEEvPT_(ptr noundef nonnull align 1 dereferenceable(1) %3, ptr noundef %3)
  br label %10

10:                                               ; preds = %9, %1
  ret void
}

; Function Attrs: mustprogress uwtable
define linkonce_odr void @_ZN9grpc_core14DualRefCountedINS_19SubchannelInterfaceENS_19PolymorphicRefCountENS_11UnrefDeleteEE5UnrefEv(ptr noundef nonnull align 8 dereferenceable(16) %0) #5 comdat align 2 {
  %2 = alloca ptr, align 8
  %3 = alloca i64, align 8
  %4 = alloca i32, align 4
  store ptr %0, ptr %2, align 8, !tbaa !468
  %5 = load ptr, ptr %2, align 8
  call void @llvm.lifetime.start.p0(i64 8, ptr %3) #3
  %6 = getelementptr inbounds nuw %"class.grpc_core::DualRefCounted", ptr %5, i32 0, i32 1
  %7 = call noundef i64 @_ZN9grpc_core14DualRefCountedINS_19SubchannelInterfaceENS_19PolymorphicRefCountENS_11UnrefDeleteEE11MakeRefPairEjj(i32 noundef -1, i32 noundef 1)
  %8 = call noundef i64 @_ZNSt13__atomic_baseImE9fetch_addEmSt12memory_order(ptr noundef nonnull align 8 dereferenceable(8) %6, i64 noundef %7, i32 noundef 4) #3
  store i64 %8, ptr %3, align 8, !tbaa !8
  call void @llvm.lifetime.start.p0(i64 4, ptr %4) #3
  %9 = load i64, ptr %3, align 8, !tbaa !8
  %10 = call noundef i32 @_ZN9grpc_core14DualRefCountedINS_19SubchannelInterfaceENS_19PolymorphicRefCountENS_11UnrefDeleteEE13GetStrongRefsEm(i64 noundef %9)
  store i32 %10, ptr %4, align 4, !tbaa !250
  %11 = load i32, ptr %4, align 4, !tbaa !250
  %12 = icmp eq i32 %11, 1
  %13 = zext i1 %12 to i64
  %14 = call i64 @llvm.expect.i64(i64 %13, i64 0)
  %15 = icmp ne i64 %14, 0
  br i1 %15, label %16, label %20

16:                                               ; preds = %1
  %17 = load ptr, ptr %5, align 8, !tbaa !64
  %18 = getelementptr inbounds ptr, ptr %17, i64 2
  %19 = load ptr, ptr %18, align 8
  call void %19(ptr noundef nonnull align 8 dereferenceable(16) %5)
  br label %20

20:                                               ; preds = %16, %1
  call void @_ZN9grpc_core14DualRefCountedINS_19SubchannelInterfaceENS_19PolymorphicRefCountENS_11UnrefDeleteEE9WeakUnrefEv(ptr noundef nonnull align 8 dereferenceable(16) %5)
  call void @llvm.lifetime.end.p0(i64 4, ptr %4) #3
  call void @llvm.lifetime.end.p0(i64 8, ptr %3) #3
  ret void
}

; Function Attrs: mustprogress nounwind uwtable
define linkonce_odr void @_ZN9grpc_core10OrphanableD2Ev(ptr noundef nonnull align 8 dereferenceable(8) %0) unnamed_addr #6 comdat align 2 {
  %2 = alloca ptr, align 8
  store ptr %0, ptr %2, align 8, !tbaa !747
  ret void
}

; Function Attrs: mustprogress nounwind uwtable
define internal void @_ZN9grpc_core13RefCountedPtrINS_12_GLOBAL__N_19PickFirstEED2Ev(ptr noundef nonnull align 8 dereferenceable(8) %0) unnamed_addr #6 align 2 personality ptr @__gxx_personality_v0 {
  %2 = alloca ptr, align 8
  store ptr %0, ptr %2, align 8, !tbaa !1250
  %3 = load ptr, ptr %2, align 8
  %4 = getelementptr inbounds nuw %"class.grpc_core::RefCountedPtr.392", ptr %3, i32 0, i32 0
  %5 = load ptr, ptr %4, align 8, !tbaa !1252
  %6 = icmp ne ptr %5, null
  br i1 %6, label %7, label %11

7:                                                ; preds = %1
  %8 = getelementptr inbounds nuw %"class.grpc_core::RefCountedPtr.392", ptr %3, i32 0, i32 0
  %9 = load ptr, ptr %8, align 8, !tbaa !1252
  invoke void @_ZN9grpc_core20InternallyRefCountedINS_19LoadBalancingPolicyENS_11UnrefDeleteEE5UnrefEv(ptr noundef nonnull align 8 dereferenceable(16) %9)
          to label %10 unwind label %12

10:                                               ; preds = %7
  br label %11

11:                                               ; preds = %10, %1
  ret void

12:                                               ; preds = %7
  %13 = landingpad { ptr, i32 }
          catch ptr null
  %14 = extractvalue { ptr, i32 } %13, 0
  call void @__clang_call_terminate(ptr %14) #29
  unreachable
}

; Function Attrs: mustprogress nounwind uwtable
define linkonce_odr void @_ZN9grpc_core13RefCountedPtrINS_19SubchannelInterfaceEED2Ev(ptr noundef nonnull align 8 dereferenceable(8) %0) unnamed_addr #6 comdat align 2 personality ptr @__gxx_personality_v0 {
  %2 = alloca ptr, align 8
  store ptr %0, ptr %2, align 8, !tbaa !461
  %3 = load ptr, ptr %2, align 8
  %4 = getelementptr inbounds nuw %"class.grpc_core::RefCountedPtr.177", ptr %3, i32 0, i32 0
  %5 = load ptr, ptr %4, align 8, !tbaa !463
  %6 = icmp ne ptr %5, null
  br i1 %6, label %7, label %11

7:                                                ; preds = %1
  %8 = getelementptr inbounds nuw %"class.grpc_core::RefCountedPtr.177", ptr %3, i32 0, i32 0
  %9 = load ptr, ptr %8, align 8, !tbaa !463
  invoke void @_ZN9grpc_core14DualRefCountedINS_19SubchannelInterfaceENS_19PolymorphicRefCountENS_11UnrefDeleteEE5UnrefEv(ptr noundef nonnull align 8 dereferenceable(16) %9)
          to label %10 unwind label %12

10:                                               ; preds = %7
  br label %11

11:                                               ; preds = %10, %1
  ret void

12:                                               ; preds = %7
  %13 = landingpad { ptr, i32 }
          catch ptr null
  %14 = extractvalue { ptr, i32 } %13, 0
  call void @__clang_call_terminate(ptr %14) #29
  unreachable
}

; Function Attrs: inlinehint mustprogress nounwind uwtable
define internal void @_ZN9grpc_core12_GLOBAL__N_19PickFirst14SubchannelList14SubchannelData15SubchannelStateD2Ev(ptr noundef nonnull align 8 dereferenceable(48) %0) unnamed_addr #13 align 2 {
  %2 = alloca ptr, align 8
  store ptr %0, ptr %2, align 8, !tbaa !1216
  %3 = load ptr, ptr %2, align 8
  %4 = getelementptr inbounds nuw %"class.grpc_core::(anonymous namespace)::PickFirst::SubchannelList::SubchannelData::SubchannelState", ptr %3, i32 0, i32 3
  call void @_ZN9grpc_core13RefCountedPtrINS_19SubchannelInterfaceEED2Ev(ptr noundef nonnull align 8 dereferenceable(8) %4) #3
  %5 = getelementptr inbounds nuw %"class.grpc_core::(anonymous namespace)::PickFirst::SubchannelList::SubchannelData::SubchannelState", ptr %3, i32 0, i32 2
  call void @_ZN9grpc_core13RefCountedPtrINS_12_GLOBAL__N_19PickFirstEED2Ev(ptr noundef nonnull align 8 dereferenceable(8) %5) #3
  call void @_ZN9grpc_core10OrphanableD2Ev(ptr noundef nonnull align 8 dereferenceable(16) %3) #3
  ret void
}

; Function Attrs: mustprogress nounwind uwtable
define internal void @_ZNK9grpc_core11UnrefDeleteclINS_12_GLOBAL__N_19PickFirst14SubchannelList14SubchannelData15SubchannelStateEEEvPT_(ptr noundef nonnull align 1 dereferenceable(1) %0, ptr noundef %1) #6 align 2 {
  %3 = alloca ptr, align 8
  %4 = alloca ptr, align 8
  store ptr %0, ptr %3, align 8, !tbaa !182
  store ptr %1, ptr %4, align 8, !tbaa !1216
  %5 = load ptr, ptr %4, align 8, !tbaa !1216
  %6 = icmp eq ptr %5, null
  br i1 %6, label %8, label %7

7:                                                ; preds = %2
  call void @_ZN9grpc_core12_GLOBAL__N_19PickFirst14SubchannelList14SubchannelData15SubchannelStateD2Ev(ptr noundef nonnull align 8 dereferenceable(48) %5) #3
  call void @_ZdlPvm(ptr noundef %5, i64 noundef 48) #32
  br label %8

8:                                                ; preds = %7, %2
  ret void
}